target datalayout = "e-m:e-p270:32:32-p271:32:32-p272:64:64-i64:64-i128:128-f80:128-n8:16:32:64-S128"
target triple = "x86_64-pc-linux-gnu"

@hf_bcp_ncp_opt_type = internal global i32 0, align 4
@hf_bcp_ncp_opt_length = internal global i32 0, align 4
@hf_bcp_ncp_stp_prot = internal global i32 0, align 4
@ett_bcp_ncp_stp_opt = internal global i32 0, align 4
@proto_bcp_ncp_option_stp = internal global i32 0, align 4
@.str.1295 = private unnamed_addr constant [8 x i8] c"%s (%u)\00", align 1

; Function Attrs: null_pointer_is_valid sspstrong uwtable
define internal void @dissect_bcp_ncp_opt_type_len(ptr noundef %0, i32 noundef %1, ptr noundef %2, ptr noundef %3) #1 {
  %5 = alloca ptr, align 8
  %6 = alloca i32, align 4
  %7 = alloca ptr, align 8
  %8 = alloca ptr, align 8
  %9 = alloca i8, align 1
  store ptr %0, ptr %5, align 8
  store i32 %1, ptr %6, align 4
  store ptr %2, ptr %7, align 8
  store ptr %3, ptr %8, align 8
  call void @llvm.lifetime.start.p0(i64 1, ptr %9) #6
  %10 = load ptr, ptr %5, align 8
  %11 = load i32, ptr %6, align 4
  %12 = call zeroext i8 @tvb_get_uint8(ptr noundef %10, i32 noundef %11)
  store i8 %12, ptr %9, align 1
  %13 = load ptr, ptr %7, align 8
  %14 = load i32, ptr @hf_bcp_ncp_opt_type, align 4
  %15 = load ptr, ptr %5, align 8
  %16 = load i32, ptr %6, align 4
  %17 = load i8, ptr %9, align 1
  %18 = zext i8 %17 to i32
  %19 = load ptr, ptr %8, align 8
  %20 = load i8, ptr %9, align 1
  %21 = zext i8 %20 to i32
  %22 = call ptr (ptr, i32, ptr, i32, i32, i32, ptr, ...) @proto_tree_add_uint_format_value(ptr noundef %13, i32 noundef %14, ptr noundef %15, i32 noundef %16, i32 noundef 1, i32 noundef %18, ptr noundef @.str.1295, ptr noundef %19, i32 noundef %21)
  %23 = load i32, ptr %6, align 4
  %24 = add i32 %23, 1
  store i32 %24, ptr %6, align 4
  %25 = load ptr, ptr %7, align 8
  %26 = load i32, ptr @hf_bcp_ncp_opt_length, align 4
  %27 = load ptr, ptr %5, align 8
  %28 = load i32, ptr %6, align 4
  %29 = call ptr @proto_tree_add_item(ptr noundef %25, i32 noundef %26, ptr noundef %27, i32 noundef %28, i32 noundef 1, i32 noundef 0)
  call void @llvm.lifetime.end.p0(i64 1, ptr %9) #6
  ret void
}

; Function Attrs: null_pointer_is_valid sspstrong uwtable
define internal i32 @dissect_bcp_ncp_stp(ptr noundef %0, ptr noundef %1, ptr noundef %2, ptr noundef %3) #1 {
  %5 = alloca ptr, align 8
  %6 = alloca ptr, align 8
  %7 = alloca ptr, align 8
  %8 = alloca ptr, align 8
  %9 = alloca ptr, align 8
  %10 = alloca ptr, align 8
  %11 = alloca i32, align 4
  %12 = alloca i32, align 4
  store ptr %0, ptr %5, align 8
  store ptr %1, ptr %6, align 8
  store ptr %2, ptr %7, align 8
  store ptr %3, ptr %8, align 8
  call void @llvm.lifetime.start.p0(i64 8, ptr %9) #6
  call void @llvm.lifetime.start.p0(i64 8, ptr %10) #6
  call void @llvm.lifetime.start.p0(i64 4, ptr %11) #6
  store i32 0, ptr %11, align 4
  call void @llvm.lifetime.start.p0(i64 4, ptr %12) #6
  %13 = load ptr, ptr %5, align 8
  %14 = call i32 @tvb_reported_length(ptr noundef %13)
  store i32 %14, ptr %12, align 4
  %15 = load ptr, ptr %7, align 8
  %16 = load i32, ptr @proto_bcp_ncp_option_stp, align 4
  %17 = load ptr, ptr %5, align 8
  %18 = load i32, ptr %11, align 4
  %19 = load i32, ptr %12, align 4
  %20 = call ptr @proto_tree_add_item(ptr noundef %15, i32 noundef %16, ptr noundef %17, i32 noundef %18, i32 noundef %19, i32 noundef 0)
  store ptr %20, ptr %10, align 8
  %21 = load ptr, ptr %10, align 8
  %22 = load i32, ptr @ett_bcp_ncp_stp_opt, align 4
  %23 = call ptr @proto_item_add_subtree(ptr noundef %21, i32 noundef %22)
  store ptr %23, ptr %9, align 8
  %24 = load ptr, ptr %5, align 8
  %25 = load i32, ptr %11, align 4
  %26 = load ptr, ptr %9, align 8
  %27 = load i32, ptr @proto_bcp_ncp_option_stp, align 4
  %28 = call ptr @proto_registrar_get_name(i32 noundef %27)
  call void @dissect_bcp_ncp_opt_type_len(ptr noundef %24, i32 noundef %25, ptr noundef %26, ptr noundef %28)
  %29 = load i32, ptr %11, align 4
  %30 = add i32 %29, 2
  store i32 %30, ptr %11, align 4
  %31 = load i32, ptr %12, align 4
  %32 = sub i32 %31, 2
  store i32 %32, ptr %12, align 4
  br label %33

33:                                               ; preds = %36, %4
  %34 = load i32, ptr %12, align 4
  %35 = icmp ne i32 %34, 0
  br i1 %35, label %36, label %46

36:                                               ; preds = %33
  %37 = load ptr, ptr %9, align 8
  %38 = load i32, ptr @hf_bcp_ncp_stp_prot, align 4
  %39 = load ptr, ptr %5, align 8
  %40 = load i32, ptr %11, align 4
  %41 = call ptr @proto_tree_add_item(ptr noundef %37, i32 noundef %38, ptr noundef %39, i32 noundef %40, i32 noundef 1, i32 noundef 0)
  %42 = load i32, ptr %12, align 4
  %43 = add i32 %42, -1
  store i32 %43, ptr %12, align 4
  %44 = load i32, ptr %11, align 4
  %45 = add i32 %44, 1
  store i32 %45, ptr %11, align 4
  br label %33, !llvm.loop !16

46:                                               ; preds = %33
  %47 = load ptr, ptr %5, align 8
  %48 = call i32 @tvb_captured_length(ptr noundef %47)
  call void @llvm.lifetime.end.p0(i64 4, ptr %12) #6
  call void @llvm.lifetime.end.p0(i64 4, ptr %11) #6
  call void @llvm.lifetime.end.p0(i64 8, ptr %10) #6
  call void @llvm.lifetime.end.p0(i64 8, ptr %9) #6
  ret i32 %48
}