; Function Attrs: null_pointer_is_valid sspstrong uwtable
define internal i32 @dissect_bcp_ncp_stp(ptr noundef %0, ptr readnone captures(none) %1, ptr noundef %2, ptr readnone captures(none) %3) #1 {
  %5 = tail call i32 @tvb_reported_length(ptr noundef %0)
  %6 = load i32, ptr @proto_bcp_ncp_option_stp, align 4
  %7 = tail call ptr @proto_tree_add_item(ptr noundef %2, i32 noundef %6, ptr noundef %0, i32 noundef 0, i32 noundef %5, i32 noundef 0)
  %8 = load i32, ptr @ett_bcp_ncp_stp_opt, align 4
  %9 = tail call ptr @proto_item_add_subtree(ptr noundef %7, i32 noundef %8)
  %10 = load i32, ptr @proto_bcp_ncp_option_stp, align 4
  %11 = tail call ptr @proto_registrar_get_name(i32 noundef %10)
  %12 = tail call zeroext i8 @tvb_get_uint8(ptr noundef %0, i32 noundef 0)
  %13 = load i32, ptr @hf_bcp_ncp_opt_type, align 4
  %14 = zext i8 %12 to i32
  %15 = tail call ptr (ptr, i32, ptr, i32, i32, i32, ptr, ...) @proto_tree_add_uint_format_value(ptr noundef %9, i32 noundef %13, ptr noundef %0, i32 noundef 0, i32 noundef 1, i32 noundef %14, ptr noundef nonnull @.str.1295, ptr noundef %11, i32 noundef %14)
  %16 = load i32, ptr @hf_bcp_ncp_opt_length, align 4
  %17 = tail call ptr @proto_tree_add_item(ptr noundef %9, i32 noundef %16, ptr noundef %0, i32 noundef 1, i32 noundef 1, i32 noundef 0)
  %18 = add i32 %5, -2
  %.not18 = icmp eq i32 %18, 0
  br i1 %.not18, label %._crit_edge, label %.lr.ph

.lr.ph:                                           ; preds = %4, %.lr.ph
  %.020 = phi i32 [ %21, %.lr.ph ], [ %18, %4 ]
  %.01719 = phi i32 [ %22, %.lr.ph ], [ 2, %4 ]
  %19 = load i32, ptr @hf_bcp_ncp_stp_prot, align 4
  %20 = tail call ptr @proto_tree_add_item(ptr noundef %9, i32 noundef %19, ptr noundef %0, i32 noundef %.01719, i32 noundef 1, i32 noundef 0)
  %21 = add i32 %.020, -1
  %22 = add i32 %.01719, 1
  %.not = icmp eq i32 %21, 0
  br i1 %.not, label %._crit_edge, label %.lr.ph, !llvm.loop !17

._crit_edge:                                      ; preds = %.lr.ph, %4
  %23 = tail call i32 @tvb_captured_length(ptr noundef %0)
  ret i32 %23
}